target datalayout = "e-m:e-p270:32:32-p271:32:32-p272:64:64-i64:64-i128:128-f80:128-n8:16:32:64-S128"
target triple = "x86_64-pc-linux-gnu"

%struct.MP = type { i64, [100 x ptr], %union.anon }
%union.anon = type { %struct.MPMAP }
%struct.MPMAP = type { ptr, i64, i64 }

@.str.2 = private unnamed_addr constant [27 x i8] c"pool memory used: %.3f MB\0A\00", align 1
@.str.3 = private unnamed_addr constant [30 x i8] c"Map flushed @%p, in use: %lu\0A\00", align 1

; Function Attrs: nounwind uwtable
define internal void @spam(ptr noundef %0, ...) #0 {
  %2 = alloca ptr, align 8
  store ptr %0, ptr %2, align 8
  ret void
}

; Function Attrs: nounwind uwtable
define internal i64 @align_to_pagesize(ptr noundef %0, i64 noundef %1) #0 {
  %3 = alloca ptr, align 8
  %4 = alloca i64, align 8
  store ptr %0, ptr %3, align 8
  store i64 %1, ptr %4, align 8
  %5 = load i64, ptr %4, align 8
  %6 = load ptr, ptr %3, align 8
  %7 = getelementptr inbounds %struct.MP, ptr %6, i32 0, i32 0
  %8 = load i64, ptr %7, align 8
  %9 = udiv i64 %5, %8
  %10 = load i64, ptr %4, align 8
  %11 = load ptr, ptr %3, align 8
  %12 = getelementptr inbounds %struct.MP, ptr %11, i32 0, i32 0
  %13 = load i64, ptr %12, align 8
  %14 = urem i64 %10, %13
  %15 = icmp ne i64 %14, 0
  %16 = zext i1 %15 to i32
  %17 = sext i32 %16 to i64
  %18 = add i64 %9, %17
  %19 = load ptr, ptr %3, align 8
  %20 = getelementptr inbounds %struct.MP, ptr %19, i32 0, i32 0
  %21 = load i64, ptr %20, align 8
  %22 = mul i64 %18, %21
  ret i64 %22
}

; Function Attrs: nounwind uwtable
define void @mpool_flush(ptr noundef %0) #0 {
  %2 = alloca ptr, align 8
  %3 = alloca i64, align 8
  %4 = alloca i64, align 8
  %5 = alloca ptr, align 8
  %6 = alloca ptr, align 8
  store ptr %0, ptr %2, align 8
  store i64 0, ptr %3, align 8
  %7 = load ptr, ptr %2, align 8
  %8 = getelementptr inbounds %struct.MP, ptr %7, i32 0, i32 2
  %9 = getelementptr inbounds %struct.MPMAP, ptr %8, i32 0, i32 0
  %10 = load ptr, ptr %9, align 8
  store ptr %10, ptr %5, align 8
  br label %11

11:                                               ; preds = %41, %1
  %12 = load ptr, ptr %5, align 8
  store ptr %12, ptr %6, align 8
  %13 = icmp ne ptr %12, null
  br i1 %13, label %14, label %47

14:                                               ; preds = %11
  %15 = load ptr, ptr %6, align 8
  %16 = getelementptr inbounds %struct.MPMAP, ptr %15, i32 0, i32 0
  %17 = load ptr, ptr %16, align 8
  store ptr %17, ptr %5, align 8
  %18 = load ptr, ptr %2, align 8
  %19 = load ptr, ptr %6, align 8
  %20 = getelementptr inbounds %struct.MPMAP, ptr %19, i32 0, i32 2
  %21 = load i64, ptr %20, align 8
  %22 = call i64 @align_to_pagesize(ptr noundef %18, i64 noundef %21)
  store i64 %22, ptr %4, align 8
  %23 = load i64, ptr %4, align 8
  %24 = load ptr, ptr %6, align 8
  %25 = getelementptr inbounds %struct.MPMAP, ptr %24, i32 0, i32 1
  %26 = load i64, ptr %25, align 8
  %27 = icmp ult i64 %23, %26
  br i1 %27, label %28, label %41

28:                                               ; preds = %14
  %29 = load ptr, ptr %6, align 8
  %30 = load i64, ptr %4, align 8
  %31 = getelementptr inbounds i8, ptr %29, i64 %30
  %32 = load ptr, ptr %6, align 8
  %33 = getelementptr inbounds %struct.MPMAP, ptr %32, i32 0, i32 1
  %34 = load i64, ptr %33, align 8
  %35 = load i64, ptr %4, align 8
  %36 = sub i64 %34, %35
  %37 = call i32 @munmap(ptr noundef %31, i64 noundef %36) #6
  %38 = load i64, ptr %4, align 8
  %39 = load ptr, ptr %6, align 8
  %40 = getelementptr inbounds %struct.MPMAP, ptr %39, i32 0, i32 1
  store i64 %38, ptr %40, align 8
  br label %41

41:                                               ; preds = %28, %14
  %42 = load ptr, ptr %6, align 8
  %43 = getelementptr inbounds %struct.MPMAP, ptr %42, i32 0, i32 1
  %44 = load i64, ptr %43, align 8
  %45 = load i64, ptr %3, align 8
  %46 = add i64 %45, %44
  store i64 %46, ptr %3, align 8
  br label %11

47:                                               ; preds = %11
  %48 = load ptr, ptr %2, align 8
  %49 = load ptr, ptr %2, align 8
  %50 = getelementptr inbounds %struct.MP, ptr %49, i32 0, i32 2
  %51 = getelementptr inbounds %struct.MPMAP, ptr %50, i32 0, i32 2
  %52 = load i64, ptr %51, align 8
  %53 = add i64 %52, 832
  %54 = call i64 @align_to_pagesize(ptr noundef %48, i64 noundef %53)
  store i64 %54, ptr %4, align 8
  %55 = load i64, ptr %4, align 8
  %56 = load ptr, ptr %2, align 8
  %57 = getelementptr inbounds %struct.MP, ptr %56, i32 0, i32 2
  %58 = getelementptr inbounds %struct.MPMAP, ptr %57, i32 0, i32 1
  %59 = load i64, ptr %58, align 8
  %60 = add i64 %59, 832
  %61 = icmp ult i64 %55, %60
  br i1 %61, label %62, label %79

62:                                               ; preds = %47
  %63 = load ptr, ptr %2, align 8
  %64 = load i64, ptr %4, align 8
  %65 = getelementptr inbounds i8, ptr %63, i64 %64
  %66 = load ptr, ptr %2, align 8
  %67 = getelementptr inbounds %struct.MP, ptr %66, i32 0, i32 2
  %68 = getelementptr inbounds %struct.MPMAP, ptr %67, i32 0, i32 1
  %69 = load i64, ptr %68, align 8
  %70 = add i64 %69, 832
  %71 = load i64, ptr %4, align 8
  %72 = sub i64 %70, %71
  %73 = call i32 @munmap(ptr noundef %65, i64 noundef %72) #6
  %74 = load i64, ptr %4, align 8
  %75 = sub i64 %74, 832
  %76 = load ptr, ptr %2, align 8
  %77 = getelementptr inbounds %struct.MP, ptr %76, i32 0, i32 2
  %78 = getelementptr inbounds %struct.MPMAP, ptr %77, i32 0, i32 1
  store i64 %75, ptr %78, align 8
  br label %79

79:                                               ; preds = %62, %47
  %80 = load ptr, ptr %2, align 8
  %81 = getelementptr inbounds %struct.MP, ptr %80, i32 0, i32 2
  %82 = getelementptr inbounds %struct.MPMAP, ptr %81, i32 0, i32 1
  %83 = load i64, ptr %82, align 8
  %84 = load i64, ptr %3, align 8
  %85 = add i64 %84, %83
  store i64 %85, ptr %3, align 8
  %86 = load i64, ptr %3, align 8
  %87 = uitofp i64 %86 to double
  %88 = fdiv double %87, 0x4130000000000000
  call void (ptr, ...) @cli_dbgmsg(ptr noundef @.str.2, double noundef %88)
  %89 = load ptr, ptr %2, align 8
  %90 = load i64, ptr %3, align 8
  call void (ptr, ...) @spam(ptr noundef @.str.3, ptr noundef %89, i64 noundef %90)
  ret void
}