; Function Attrs: nounwind uwtable
define void @mpool_flush(ptr noundef %0) local_unnamed_addr #0 {
  %2 = getelementptr inbounds i8, ptr %0, i64 808
  %3 = load ptr, ptr %2, align 8
  %.not35 = icmp eq ptr %3, null
  br i1 %.not35, label %._crit_edge, label %.lr.ph

.lr.ph:                                           ; preds = %1, %20
  %.037 = phi i64 [ %22, %20 ], [ 0, %1 ]
  %.02936 = phi ptr [ %4, %20 ], [ %3, %1 ]
  %4 = load ptr, ptr %.02936, align 8
  %5 = getelementptr inbounds i8, ptr %.02936, i64 16
  %6 = load i64, ptr %5, align 8
  %.val34 = load i64, ptr %0, align 8
  %7 = udiv i64 %6, %.val34
  %8 = urem i64 %6, %.val34
  %9 = icmp ne i64 %8, 0
  %10 = zext i1 %9 to i64
  %11 = add i64 %7, %10
  %12 = mul i64 %11, %.val34
  %13 = getelementptr inbounds i8, ptr %.02936, i64 8
  %14 = load i64, ptr %13, align 8
  %15 = icmp ult i64 %12, %14
  br i1 %15, label %16, label %20

16:                                               ; preds = %.lr.ph
  %17 = getelementptr inbounds i8, ptr %.02936, i64 %12
  %18 = sub i64 %14, %12
  %19 = tail call i32 @munmap(ptr noundef nonnull %17, i64 noundef %18) #10
  store i64 %12, ptr %13, align 8
  br label %20

20:                                               ; preds = %16, %.lr.ph
  %21 = phi i64 [ %12, %16 ], [ %14, %.lr.ph ]
  %22 = add i64 %21, %.037
  %.not = icmp eq ptr %4, null
  br i1 %.not, label %._crit_edge, label %.lr.ph

._crit_edge:                                      ; preds = %20, %1
  %.0.lcssa = phi i64 [ 0, %1 ], [ %22, %20 ]
  %23 = getelementptr inbounds i8, ptr %0, i64 824
  %24 = load i64, ptr %23, align 8
  %25 = add i64 %24, 832
  %.val = load i64, ptr %0, align 8
  %26 = udiv i64 %25, %.val
  %27 = urem i64 %25, %.val
  %28 = icmp ne i64 %27, 0
  %29 = zext i1 %28 to i64
  %30 = add i64 %26, %29
  %31 = mul i64 %30, %.val
  %32 = getelementptr inbounds i8, ptr %0, i64 816
  %33 = load i64, ptr %32, align 8
  %34 = add i64 %33, 832
  %35 = icmp ult i64 %31, %34
  br i1 %35, label %36, label %41

36:                                               ; preds = %._crit_edge
  %37 = getelementptr inbounds i8, ptr %0, i64 %31
  %38 = sub i64 %34, %31
  %39 = tail call i32 @munmap(ptr noundef nonnull %37, i64 noundef %38) #10
  %40 = add i64 %31, -832
  store i64 %40, ptr %32, align 8
  br label %41

41:                                               ; preds = %36, %._crit_edge
  %42 = phi i64 [ %40, %36 ], [ %33, %._crit_edge ]
  %43 = add i64 %42, %.0.lcssa
  %44 = uitofp i64 %43 to double
  %45 = fmul double %44, 0x3EB0000000000000
  tail call void (ptr, ...) @cli_dbgmsg(ptr noundef nonnull @.str.2, double noundef %45) #10
  ret void
}